target datalayout = "e-m:e-p270:32:32-p271:32:32-p272:64:64-i64:64-i128:128-f80:128-n8:16:32:64-S128"
target triple = "x86_64-pc-linux-gnu"

%"class.cv::Mat" = type { i32, i32, i32, i32, ptr, ptr, ptr, ptr, ptr, ptr, %"struct.cv::MatSize", %"struct.cv::MatStep" }
%"struct.cv::MatSize" = type { ptr }
%"struct.cv::MatStep" = type { ptr, [2 x i64] }
%class.PnPProblem = type { ptr, %"class.cv::Mat", %"class.cv::Mat", %"class.cv::Mat", %"class.cv::Mat" }

; Function Attrs: mustprogress nounwind uwtable
define linkonce_odr hidden noundef zeroext i1 @_ZNK2cv3Mat12isContinuousEv(ptr noundef nonnull align 8 dereferenceable(96) %0) #5 comdat align 2 {
  %2 = alloca ptr, align 8
  store ptr %0, ptr %2, align 8
  %3 = load ptr, ptr %2, align 8
  %4 = getelementptr inbounds %"class.cv::Mat", ptr %3, i32 0, i32 0
  %5 = load i32, ptr %4, align 8
  %6 = and i32 %5, 16384
  %7 = icmp ne i32 %6, 0
  ret i1 %7
}

; Function Attrs: mustprogress uwtable
define linkonce_odr hidden noundef nonnull align 8 dereferenceable(8) ptr @_ZNK2cv3Mat2atIdEERKT_i(ptr noundef nonnull align 8 dereferenceable(96) %0, i32 noundef %1) #4 comdat align 2 {
  %3 = alloca ptr, align 8
  %4 = alloca ptr, align 8
  %5 = alloca i32, align 4
  %6 = alloca i32, align 4
  %7 = alloca i32, align 4
  store ptr %0, ptr %4, align 8
  store i32 %1, ptr %5, align 4
  %8 = load ptr, ptr %4, align 8
  %9 = call noundef zeroext i1 @_ZNK2cv3Mat12isContinuousEv(ptr noundef nonnull align 8 dereferenceable(96) %8)
  br i1 %9, label %17, label %10

10:                                               ; preds = %2
  %11 = getelementptr inbounds %"class.cv::Mat", ptr %8, i32 0, i32 10
  %12 = getelementptr inbounds %"struct.cv::MatSize", ptr %11, i32 0, i32 0
  %13 = load ptr, ptr %12, align 8
  %14 = getelementptr inbounds i32, ptr %13, i64 0
  %15 = load i32, ptr %14, align 4
  %16 = icmp eq i32 %15, 1
  br i1 %16, label %17, label %23

17:                                               ; preds = %10, %2
  %18 = getelementptr inbounds %"class.cv::Mat", ptr %8, i32 0, i32 4
  %19 = load ptr, ptr %18, align 8
  %20 = load i32, ptr %5, align 4
  %21 = sext i32 %20 to i64
  %22 = getelementptr inbounds double, ptr %19, i64 %21
  store ptr %22, ptr %3, align 8
  br label %67

23:                                               ; preds = %10
  %24 = getelementptr inbounds %"class.cv::Mat", ptr %8, i32 0, i32 10
  %25 = getelementptr inbounds %"struct.cv::MatSize", ptr %24, i32 0, i32 0
  %26 = load ptr, ptr %25, align 8
  %27 = getelementptr inbounds i32, ptr %26, i64 1
  %28 = load i32, ptr %27, align 4
  %29 = icmp eq i32 %28, 1
  br i1 %29, label %30, label %42

30:                                               ; preds = %23
  %31 = getelementptr inbounds %"class.cv::Mat", ptr %8, i32 0, i32 4
  %32 = load ptr, ptr %31, align 8
  %33 = getelementptr inbounds %"class.cv::Mat", ptr %8, i32 0, i32 11
  %34 = getelementptr inbounds %"struct.cv::MatStep", ptr %33, i32 0, i32 0
  %35 = load ptr, ptr %34, align 8
  %36 = getelementptr inbounds i64, ptr %35, i64 0
  %37 = load i64, ptr %36, align 8
  %38 = load i32, ptr %5, align 4
  %39 = sext i32 %38 to i64
  %40 = mul i64 %37, %39
  %41 = getelementptr inbounds i8, ptr %32, i64 %40
  store ptr %41, ptr %3, align 8
  br label %67

42:                                               ; preds = %23
  %43 = load i32, ptr %5, align 4
  %44 = getelementptr inbounds %"class.cv::Mat", ptr %8, i32 0, i32 3
  %45 = load i32, ptr %44, align 4
  %46 = sdiv i32 %43, %45
  store i32 %46, ptr %6, align 4
  %47 = load i32, ptr %5, align 4
  %48 = load i32, ptr %6, align 4
  %49 = getelementptr inbounds %"class.cv::Mat", ptr %8, i32 0, i32 3
  %50 = load i32, ptr %49, align 4
  %51 = mul nsw i32 %48, %50
  %52 = sub nsw i32 %47, %51
  store i32 %52, ptr %7, align 4
  %53 = getelementptr inbounds %"class.cv::Mat", ptr %8, i32 0, i32 4
  %54 = load ptr, ptr %53, align 8
  %55 = getelementptr inbounds %"class.cv::Mat", ptr %8, i32 0, i32 11
  %56 = getelementptr inbounds %"struct.cv::MatStep", ptr %55, i32 0, i32 0
  %57 = load ptr, ptr %56, align 8
  %58 = getelementptr inbounds i64, ptr %57, i64 0
  %59 = load i64, ptr %58, align 8
  %60 = load i32, ptr %6, align 4
  %61 = sext i32 %60 to i64
  %62 = mul i64 %59, %61
  %63 = getelementptr inbounds i8, ptr %54, i64 %62
  %64 = load i32, ptr %7, align 4
  %65 = sext i32 %64 to i64
  %66 = getelementptr inbounds double, ptr %63, i64 %65
  store ptr %66, ptr %3, align 8
  br label %67

67:                                               ; preds = %42, %30, %17
  %68 = load ptr, ptr %3, align 8
  ret ptr %68
}

; Function Attrs: mustprogress nounwind uwtable
define linkonce_odr hidden noundef nonnull align 8 dereferenceable(8) ptr @_ZN2cv3Mat2atIdEERT_ii(ptr noundef nonnull align 8 dereferenceable(96) %0, i32 noundef %1, i32 noundef %2) #5 comdat align 2 {
  %4 = alloca ptr, align 8
  %5 = alloca i32, align 4
  %6 = alloca i32, align 4
  store ptr %0, ptr %4, align 8
  store i32 %1, ptr %5, align 4
  store i32 %2, ptr %6, align 4
  %7 = load ptr, ptr %4, align 8
  %8 = getelementptr inbounds %"class.cv::Mat", ptr %7, i32 0, i32 4
  %9 = load ptr, ptr %8, align 8
  %10 = getelementptr inbounds %"class.cv::Mat", ptr %7, i32 0, i32 11
  %11 = getelementptr inbounds %"struct.cv::MatStep", ptr %10, i32 0, i32 0
  %12 = load ptr, ptr %11, align 8
  %13 = getelementptr inbounds i64, ptr %12, i64 0
  %14 = load i64, ptr %13, align 8
  %15 = load i32, ptr %5, align 4
  %16 = sext i32 %15 to i64
  %17 = mul i64 %14, %16
  %18 = getelementptr inbounds i8, ptr %9, i64 %17
  %19 = load i32, ptr %6, align 4
  %20 = sext i32 %19 to i64
  %21 = getelementptr inbounds double, ptr %18, i64 %20
  ret ptr %21
}

; Function Attrs: mustprogress nounwind uwtable
define linkonce_odr hidden noundef nonnull align 8 dereferenceable(8) ptr @_ZNK2cv3Mat2atIdEERKT_ii(ptr noundef nonnull align 8 dereferenceable(96) %0, i32 noundef %1, i32 noundef %2) #5 comdat align 2 {
  %4 = alloca ptr, align 8
  %5 = alloca i32, align 4
  %6 = alloca i32, align 4
  store ptr %0, ptr %4, align 8
  store i32 %1, ptr %5, align 4
  store i32 %2, ptr %6, align 4
  %7 = load ptr, ptr %4, align 8
  %8 = getelementptr inbounds %"class.cv::Mat", ptr %7, i32 0, i32 4
  %9 = load ptr, ptr %8, align 8
  %10 = getelementptr inbounds %"class.cv::Mat", ptr %7, i32 0, i32 11
  %11 = getelementptr inbounds %"struct.cv::MatStep", ptr %10, i32 0, i32 0
  %12 = load ptr, ptr %11, align 8
  %13 = getelementptr inbounds i64, ptr %12, i64 0
  %14 = load i64, ptr %13, align 8
  %15 = load i32, ptr %5, align 4
  %16 = sext i32 %15 to i64
  %17 = mul i64 %14, %16
  %18 = getelementptr inbounds i8, ptr %9, i64 %17
  %19 = load i32, ptr %6, align 4
  %20 = sext i32 %19 to i64
  %21 = getelementptr inbounds double, ptr %18, i64 %20
  ret ptr %21
}

; Function Attrs: mustprogress uwtable
define hidden void @_ZN10PnPProblem12set_P_matrixERKN2cv3MatES3_(ptr noundef nonnull align 8 dereferenceable(392) %0, ptr noundef nonnull align 8 dereferenceable(96) %1, ptr noundef nonnull align 8 dereferenceable(96) %2) #4 align 2 {
  %4 = alloca ptr, align 8
  %5 = alloca ptr, align 8
  %6 = alloca ptr, align 8
  store ptr %0, ptr %4, align 8
  store ptr %1, ptr %5, align 8
  store ptr %2, ptr %6, align 8
  %7 = load ptr, ptr %4, align 8
  %8 = load ptr, ptr %5, align 8
  %9 = call noundef nonnull align 8 dereferenceable(8) ptr @_ZNK2cv3Mat2atIdEERKT_ii(ptr noundef nonnull align 8 dereferenceable(96) %8, i32 noundef 0, i32 noundef 0)
  %10 = load double, ptr %9, align 8
  %11 = getelementptr inbounds %class.PnPProblem, ptr %7, i32 0, i32 4
  %12 = call noundef nonnull align 8 dereferenceable(8) ptr @_ZN2cv3Mat2atIdEERT_ii(ptr noundef nonnull align 8 dereferenceable(96) %11, i32 noundef 0, i32 noundef 0)
  store double %10, ptr %12, align 8
  %13 = load ptr, ptr %5, align 8
  %14 = call noundef nonnull align 8 dereferenceable(8) ptr @_ZNK2cv3Mat2atIdEERKT_ii(ptr noundef nonnull align 8 dereferenceable(96) %13, i32 noundef 0, i32 noundef 1)
  %15 = load double, ptr %14, align 8
  %16 = getelementptr inbounds %class.PnPProblem, ptr %7, i32 0, i32 4
  %17 = call noundef nonnull align 8 dereferenceable(8) ptr @_ZN2cv3Mat2atIdEERT_ii(ptr noundef nonnull align 8 dereferenceable(96) %16, i32 noundef 0, i32 noundef 1)
  store double %15, ptr %17, align 8
  %18 = load ptr, ptr %5, align 8
  %19 = call noundef nonnull align 8 dereferenceable(8) ptr @_ZNK2cv3Mat2atIdEERKT_ii(ptr noundef nonnull align 8 dereferenceable(96) %18, i32 noundef 0, i32 noundef 2)
  %20 = load double, ptr %19, align 8
  %21 = getelementptr inbounds %class.PnPProblem, ptr %7, i32 0, i32 4
  %22 = call noundef nonnull align 8 dereferenceable(8) ptr @_ZN2cv3Mat2atIdEERT_ii(ptr noundef nonnull align 8 dereferenceable(96) %21, i32 noundef 0, i32 noundef 2)
  store double %20, ptr %22, align 8
  %23 = load ptr, ptr %5, align 8
  %24 = call noundef nonnull align 8 dereferenceable(8) ptr @_ZNK2cv3Mat2atIdEERKT_ii(ptr noundef nonnull align 8 dereferenceable(96) %23, i32 noundef 1, i32 noundef 0)
  %25 = load double, ptr %24, align 8
  %26 = getelementptr inbounds %class.PnPProblem, ptr %7, i32 0, i32 4
  %27 = call noundef nonnull align 8 dereferenceable(8) ptr @_ZN2cv3Mat2atIdEERT_ii(ptr noundef nonnull align 8 dereferenceable(96) %26, i32 noundef 1, i32 noundef 0)
  store double %25, ptr %27, align 8
  %28 = load ptr, ptr %5, align 8
  %29 = call noundef nonnull align 8 dereferenceable(8) ptr @_ZNK2cv3Mat2atIdEERKT_ii(ptr noundef nonnull align 8 dereferenceable(96) %28, i32 noundef 1, i32 noundef 1)
  %30 = load double, ptr %29, align 8
  %31 = getelementptr inbounds %class.PnPProblem, ptr %7, i32 0, i32 4
  %32 = call noundef nonnull align 8 dereferenceable(8) ptr @_ZN2cv3Mat2atIdEERT_ii(ptr noundef nonnull align 8 dereferenceable(96) %31, i32 noundef 1, i32 noundef 1)
  store double %30, ptr %32, align 8
  %33 = load ptr, ptr %5, align 8
  %34 = call noundef nonnull align 8 dereferenceable(8) ptr @_ZNK2cv3Mat2atIdEERKT_ii(ptr noundef nonnull align 8 dereferenceable(96) %33, i32 noundef 1, i32 noundef 2)
  %35 = load double, ptr %34, align 8
  %36 = getelementptr inbounds %class.PnPProblem, ptr %7, i32 0, i32 4
  %37 = call noundef nonnull align 8 dereferenceable(8) ptr @_ZN2cv3Mat2atIdEERT_ii(ptr noundef nonnull align 8 dereferenceable(96) %36, i32 noundef 1, i32 noundef 2)
  store double %35, ptr %37, align 8
  %38 = load ptr, ptr %5, align 8
  %39 = call noundef nonnull align 8 dereferenceable(8) ptr @_ZNK2cv3Mat2atIdEERKT_ii(ptr noundef nonnull align 8 dereferenceable(96) %38, i32 noundef 2, i32 noundef 0)
  %40 = load double, ptr %39, align 8
  %41 = getelementptr inbounds %class.PnPProblem, ptr %7, i32 0, i32 4
  %42 = call noundef nonnull align 8 dereferenceable(8) ptr @_ZN2cv3Mat2atIdEERT_ii(ptr noundef nonnull align 8 dereferenceable(96) %41, i32 noundef 2, i32 noundef 0)
  store double %40, ptr %42, align 8
  %43 = load ptr, ptr %5, align 8
  %44 = call noundef nonnull align 8 dereferenceable(8) ptr @_ZNK2cv3Mat2atIdEERKT_ii(ptr noundef nonnull align 8 dereferenceable(96) %43, i32 noundef 2, i32 noundef 1)
  %45 = load double, ptr %44, align 8
  %46 = getelementptr inbounds %class.PnPProblem, ptr %7, i32 0, i32 4
  %47 = call noundef nonnull align 8 dereferenceable(8) ptr @_ZN2cv3Mat2atIdEERT_ii(ptr noundef nonnull align 8 dereferenceable(96) %46, i32 noundef 2, i32 noundef 1)
  store double %45, ptr %47, align 8
  %48 = load ptr, ptr %5, align 8
  %49 = call noundef nonnull align 8 dereferenceable(8) ptr @_ZNK2cv3Mat2atIdEERKT_ii(ptr noundef nonnull align 8 dereferenceable(96) %48, i32 noundef 2, i32 noundef 2)
  %50 = load double, ptr %49, align 8
  %51 = getelementptr inbounds %class.PnPProblem, ptr %7, i32 0, i32 4
  %52 = call noundef nonnull align 8 dereferenceable(8) ptr @_ZN2cv3Mat2atIdEERT_ii(ptr noundef nonnull align 8 dereferenceable(96) %51, i32 noundef 2, i32 noundef 2)
  store double %50, ptr %52, align 8
  %53 = load ptr, ptr %6, align 8
  %54 = call noundef nonnull align 8 dereferenceable(8) ptr @_ZNK2cv3Mat2atIdEERKT_i(ptr noundef nonnull align 8 dereferenceable(96) %53, i32 noundef 0)
  %55 = load double, ptr %54, align 8
  %56 = getelementptr inbounds %class.PnPProblem, ptr %7, i32 0, i32 4
  %57 = call noundef nonnull align 8 dereferenceable(8) ptr @_ZN2cv3Mat2atIdEERT_ii(ptr noundef nonnull align 8 dereferenceable(96) %56, i32 noundef 0, i32 noundef 3)
  store double %55, ptr %57, align 8
  %58 = load ptr, ptr %6, align 8
  %59 = call noundef nonnull align 8 dereferenceable(8) ptr @_ZNK2cv3Mat2atIdEERKT_i(ptr noundef nonnull align 8 dereferenceable(96) %58, i32 noundef 1)
  %60 = load double, ptr %59, align 8
  %61 = getelementptr inbounds %class.PnPProblem, ptr %7, i32 0, i32 4
  %62 = call noundef nonnull align 8 dereferenceable(8) ptr @_ZN2cv3Mat2atIdEERT_ii(ptr noundef nonnull align 8 dereferenceable(96) %61, i32 noundef 1, i32 noundef 3)
  store double %60, ptr %62, align 8
  %63 = load ptr, ptr %6, align 8
  %64 = call noundef nonnull align 8 dereferenceable(8) ptr @_ZNK2cv3Mat2atIdEERKT_i(ptr noundef nonnull align 8 dereferenceable(96) %63, i32 noundef 2)
  %65 = load double, ptr %64, align 8
  %66 = getelementptr inbounds %class.PnPProblem, ptr %7, i32 0, i32 4
  %67 = call noundef nonnull align 8 dereferenceable(8) ptr @_ZN2cv3Mat2atIdEERT_ii(ptr noundef nonnull align 8 dereferenceable(96) %66, i32 noundef 2, i32 noundef 3)
  store double %65, ptr %67, align 8
  ret void
}