; Function Attrs: mustprogress nofree norecurse nosync nounwind willreturn memory(readwrite, inaccessiblemem: none) uwtable
define hidden void @_ZN10PnPProblem12set_P_matrixERKN2cv3MatES3_(ptr nocapture noundef nonnull readonly align 8 dereferenceable(392) %0, ptr nocapture noundef nonnull readonly align 8 dereferenceable(96) %1, ptr nocapture noundef nonnull readonly align 8 dereferenceable(96) %2) local_unnamed_addr #6 align 2 {
_ZNK2cv3Mat2atIdEERKT_i.exit:
  %3 = getelementptr inbounds i8, ptr %1, i64 16
  %4 = load ptr, ptr %3, align 8
  %5 = getelementptr inbounds i8, ptr %1, i64 72
  %6 = load double, ptr %4, align 8
  %7 = getelementptr inbounds i8, ptr %0, i64 312
  %8 = load ptr, ptr %7, align 8
  %9 = getelementptr inbounds i8, ptr %0, i64 368
  store double %6, ptr %8, align 8
  %10 = load ptr, ptr %3, align 8
  %11 = getelementptr inbounds i8, ptr %10, i64 8
  %12 = load double, ptr %11, align 8
  %13 = load ptr, ptr %7, align 8
  %14 = getelementptr inbounds i8, ptr %13, i64 8
  store double %12, ptr %14, align 8
  %15 = load ptr, ptr %3, align 8
  %16 = getelementptr inbounds i8, ptr %15, i64 16
  %17 = load double, ptr %16, align 8
  %18 = load ptr, ptr %7, align 8
  %19 = getelementptr inbounds i8, ptr %18, i64 16
  store double %17, ptr %19, align 8
  %20 = load ptr, ptr %3, align 8
  %21 = load ptr, ptr %5, align 8
  %22 = load i64, ptr %21, align 8
  %23 = getelementptr inbounds i8, ptr %20, i64 %22
  %24 = load double, ptr %23, align 8
  %25 = load ptr, ptr %7, align 8
  %26 = load ptr, ptr %9, align 8
  %27 = load i64, ptr %26, align 8
  %28 = getelementptr inbounds i8, ptr %25, i64 %27
  store double %24, ptr %28, align 8
  %29 = load ptr, ptr %3, align 8
  %30 = load ptr, ptr %5, align 8
  %31 = load i64, ptr %30, align 8
  %32 = getelementptr inbounds i8, ptr %29, i64 %31
  %33 = getelementptr inbounds i8, ptr %32, i64 8
  %34 = load double, ptr %33, align 8
  %35 = load ptr, ptr %7, align 8
  %36 = load ptr, ptr %9, align 8
  %37 = load i64, ptr %36, align 8
  %38 = getelementptr inbounds i8, ptr %35, i64 %37
  %39 = getelementptr inbounds i8, ptr %38, i64 8
  store double %34, ptr %39, align 8
  %40 = load ptr, ptr %3, align 8
  %41 = load ptr, ptr %5, align 8
  %42 = load i64, ptr %41, align 8
  %43 = getelementptr inbounds i8, ptr %40, i64 %42
  %44 = getelementptr inbounds i8, ptr %43, i64 16
  %45 = load double, ptr %44, align 8
  %46 = load ptr, ptr %7, align 8
  %47 = load ptr, ptr %9, align 8
  %48 = load i64, ptr %47, align 8
  %49 = getelementptr inbounds i8, ptr %46, i64 %48
  %50 = getelementptr inbounds i8, ptr %49, i64 16
  store double %45, ptr %50, align 8
  %51 = load ptr, ptr %3, align 8
  %52 = load ptr, ptr %5, align 8
  %53 = load i64, ptr %52, align 8
  %54 = shl i64 %53, 1
  %55 = getelementptr inbounds i8, ptr %51, i64 %54
  %56 = load double, ptr %55, align 8
  %57 = load ptr, ptr %7, align 8
  %58 = load ptr, ptr %9, align 8
  %59 = load i64, ptr %58, align 8
  %60 = shl i64 %59, 1
  %61 = getelementptr inbounds i8, ptr %57, i64 %60
  store double %56, ptr %61, align 8
  %62 = load ptr, ptr %3, align 8
  %63 = load ptr, ptr %5, align 8
  %64 = load i64, ptr %63, align 8
  %65 = shl i64 %64, 1
  %66 = getelementptr inbounds i8, ptr %62, i64 %65
  %67 = getelementptr inbounds i8, ptr %66, i64 8
  %68 = load double, ptr %67, align 8
  %69 = load ptr, ptr %7, align 8
  %70 = load ptr, ptr %9, align 8
  %71 = load i64, ptr %70, align 8
  %72 = shl i64 %71, 1
  %73 = getelementptr inbounds i8, ptr %69, i64 %72
  %74 = getelementptr inbounds i8, ptr %73, i64 8
  store double %68, ptr %74, align 8
  %75 = load ptr, ptr %3, align 8
  %76 = load ptr, ptr %5, align 8
  %77 = load i64, ptr %76, align 8
  %78 = shl i64 %77, 1
  %79 = getelementptr inbounds i8, ptr %75, i64 %78
  %80 = getelementptr inbounds i8, ptr %79, i64 16
  %81 = load double, ptr %80, align 8
  %82 = load ptr, ptr %7, align 8
  %83 = load ptr, ptr %9, align 8
  %84 = load i64, ptr %83, align 8
  %85 = shl i64 %84, 1
  %86 = getelementptr inbounds i8, ptr %82, i64 %85
  %87 = getelementptr inbounds i8, ptr %86, i64 16
  store double %81, ptr %87, align 8
  %.0.i.in = getelementptr inbounds i8, ptr %2, i64 16
  %.0.i = load ptr, ptr %.0.i.in, align 8
  %88 = load double, ptr %.0.i, align 8
  %89 = load ptr, ptr %7, align 8
  %90 = getelementptr inbounds i8, ptr %89, i64 24
  store double %88, ptr %90, align 8
  %91 = load i32, ptr %2, align 8
  %92 = and i32 %91, 16384
  %.not.i13 = icmp eq i32 %92, 0
  br i1 %.not.i13, label %93, label %98

93:                                               ; preds = %_ZNK2cv3Mat2atIdEERKT_i.exit
  %94 = getelementptr inbounds i8, ptr %2, i64 64
  %95 = load ptr, ptr %94, align 8
  %96 = load i32, ptr %95, align 4
  %97 = icmp eq i32 %96, 1
  br i1 %97, label %98, label %101

98:                                               ; preds = %93, %_ZNK2cv3Mat2atIdEERKT_i.exit
  %99 = load ptr, ptr %.0.i.in, align 8
  %100 = getelementptr inbounds i8, ptr %99, i64 8
  br label %_ZNK2cv3Mat2atIdEERKT_i.exit15

101:                                              ; preds = %93
  %102 = getelementptr inbounds i8, ptr %95, i64 4
  %103 = load i32, ptr %102, align 4
  %104 = icmp eq i32 %103, 1
  br i1 %104, label %105, label %111

105:                                              ; preds = %101
  %106 = load ptr, ptr %.0.i.in, align 8
  %107 = getelementptr inbounds i8, ptr %2, i64 72
  %108 = load ptr, ptr %107, align 8
  %109 = load i64, ptr %108, align 8
  %110 = getelementptr inbounds i8, ptr %106, i64 %109
  br label %_ZNK2cv3Mat2atIdEERKT_i.exit15

111:                                              ; preds = %101
  %112 = getelementptr inbounds i8, ptr %2, i64 12
  %113 = load i32, ptr %112, align 4
  %.fr = freeze i32 %113
  %114 = add i32 %.fr, 1
  %115 = icmp ult i32 %114, 3
  %116 = select i1 %115, i32 %.fr, i32 0
  %117 = mul nsw i32 %116, %.fr
  %118 = sub nsw i32 1, %117
  %119 = load ptr, ptr %.0.i.in, align 8
  %120 = getelementptr inbounds i8, ptr %2, i64 72
  %121 = load ptr, ptr %120, align 8
  %122 = load i64, ptr %121, align 8
  %123 = sext i32 %116 to i64
  %124 = mul i64 %122, %123
  %125 = getelementptr inbounds i8, ptr %119, i64 %124
  %126 = sext i32 %118 to i64
  %127 = getelementptr inbounds double, ptr %125, i64 %126
  br label %_ZNK2cv3Mat2atIdEERKT_i.exit15

_ZNK2cv3Mat2atIdEERKT_i.exit15:                   ; preds = %98, %105, %111
  %.0.i14 = phi ptr [ %100, %98 ], [ %110, %105 ], [ %127, %111 ]
  %128 = load double, ptr %.0.i14, align 8
  %129 = load ptr, ptr %7, align 8
  %130 = load ptr, ptr %9, align 8
  %131 = load i64, ptr %130, align 8
  %132 = getelementptr inbounds i8, ptr %129, i64 %131
  %133 = getelementptr inbounds i8, ptr %132, i64 24
  store double %128, ptr %133, align 8
  %134 = load i32, ptr %2, align 8
  %135 = and i32 %134, 16384
  %.not.i16 = icmp eq i32 %135, 0
  br i1 %.not.i16, label %136, label %141

136:                                              ; preds = %_ZNK2cv3Mat2atIdEERKT_i.exit15
  %137 = getelementptr inbounds i8, ptr %2, i64 64
  %138 = load ptr, ptr %137, align 8
  %139 = load i32, ptr %138, align 4
  %140 = icmp eq i32 %139, 1
  br i1 %140, label %141, label %144

141:                                              ; preds = %136, %_ZNK2cv3Mat2atIdEERKT_i.exit15
  %142 = load ptr, ptr %.0.i.in, align 8
  %143 = getelementptr inbounds i8, ptr %142, i64 16
  br label %_ZNK2cv3Mat2atIdEERKT_i.exit18

144:                                              ; preds = %136
  %145 = getelementptr inbounds i8, ptr %138, i64 4
  %146 = load i32, ptr %145, align 4
  %147 = icmp eq i32 %146, 1
  br i1 %147, label %148, label %155

148:                                              ; preds = %144
  %149 = load ptr, ptr %.0.i.in, align 8
  %150 = getelementptr inbounds i8, ptr %2, i64 72
  %151 = load ptr, ptr %150, align 8
  %152 = load i64, ptr %151, align 8
  %153 = shl i64 %152, 1
  %154 = getelementptr inbounds i8, ptr %149, i64 %153
  br label %_ZNK2cv3Mat2atIdEERKT_i.exit18

155:                                              ; preds = %144
  %156 = getelementptr inbounds i8, ptr %2, i64 12
  %157 = load i32, ptr %156, align 4
  %158 = sdiv i32 2, %157
  %159 = mul nsw i32 %158, %157
  %.recomposed = srem i32 2, %157
  %160 = load ptr, ptr %.0.i.in, align 8
  %161 = getelementptr inbounds i8, ptr %2, i64 72
  %162 = load ptr, ptr %161, align 8
  %163 = load i64, ptr %162, align 8
  %164 = sext i32 %158 to i64
  %165 = mul i64 %163, %164
  %166 = getelementptr inbounds i8, ptr %160, i64 %165
  %167 = sext i32 %.recomposed to i64
  %168 = getelementptr inbounds double, ptr %166, i64 %167
  br label %_ZNK2cv3Mat2atIdEERKT_i.exit18

_ZNK2cv3Mat2atIdEERKT_i.exit18:                   ; preds = %141, %148, %155
  %.0.i17 = phi ptr [ %143, %141 ], [ %154, %148 ], [ %168, %155 ]
  %169 = load double, ptr %.0.i17, align 8
  %170 = load ptr, ptr %7, align 8
  %171 = load ptr, ptr %9, align 8
  %172 = load i64, ptr %171, align 8
  %173 = shl i64 %172, 1
  %174 = getelementptr inbounds i8, ptr %170, i64 %173
  %175 = getelementptr inbounds i8, ptr %174, i64 24
  store double %169, ptr %175, align 8
  ret void
}